; ModuleID = '37/581.c'
source_filename = "37/581.c"
target datalayout = "e-m:e-p270:32:32-p271:32:32-p272:64:64-i64:64-f80:128-n8:16:32:64-S128"
target triple = "x86_64-pc-linux-gnu"

@.str = private unnamed_addr constant [3 x i8] c"%d\00", align 1
@.str.1 = private unnamed_addr constant [4 x i8] c"%c\0A\00", align 1
@.str.2 = private unnamed_addr constant [4 x i8] c"no\0A\00", align 1

; Function Attrs: noinline nounwind uwtable
define dso_local i32 @main() #0 {
  %1 = alloca i32, align 4
  %2 = alloca [10000 x i8]*, align 8
  %3 = alloca i8, align 1
  %4 = alloca i32, align 4
  %5 = alloca i32, align 4
  %6 = alloca i32, align 4
  %7 = alloca i32, align 4
  %8 = alloca i32, align 4
  %9 = alloca i32, align 4
  store i32 0, i32* %1, align 4
  store i32 0, i32* %6, align 4
  %10 = call i32 (i8*, ...) @__isoc99_scanf(i8* getelementptr inbounds ([3 x i8], [3 x i8]* @.str, i64 0, i64 0), i32* %4)
  %11 = call i32 @getchar()
  %12 = load i32, i32* %4, align 4
  %13 = sext i32 %12 to i64
  %14 = mul i64 %13, 1
  %15 = mul i64 %14, 10000
  %16 = call noalias i8* @malloc(i64 %15) #4
  %17 = bitcast i8* %16 to [10000 x i8]*
  store [10000 x i8]* %17, [10000 x i8]** %2, align 8
  store i32 0, i32* %5, align 4
  br label %18

18:                                               ; preds = %29, %0
  %19 = load i32, i32* %5, align 4
  %20 = load i32, i32* %4, align 4
  %21 = icmp slt i32 %19, %20
  br i1 %21, label %22, label %32

22:                                               ; preds = %18
  %23 = load [10000 x i8]*, [10000 x i8]** %2, align 8
  %24 = load i32, i32* %5, align 4
  %25 = sext i32 %24 to i64
  %26 = getelementptr inbounds [10000 x i8], [10000 x i8]* %23, i64 %25
  %27 = getelementptr inbounds [10000 x i8], [10000 x i8]* %26, i64 0, i64 0
  %28 = call i32 (i8*, ...) bitcast (i32 (...)* @gets to i32 (i8*, ...)*)(i8* %27)
  br label %29

29:                                               ; preds = %22
  %30 = load i32, i32* %5, align 4
  %31 = add nsw i32 %30, 1
  store i32 %31, i32* %5, align 4
  br label %18

32:                                               ; preds = %18
  store i32 0, i32* %5, align 4
  br label %33

33:                                               ; preds = %106, %32
  %34 = load i32, i32* %5, align 4
  %35 = load i32, i32* %4, align 4
  %36 = icmp slt i32 %34, %35
  br i1 %36, label %37, label %109

37:                                               ; preds = %33
  %38 = load [10000 x i8]*, [10000 x i8]** %2, align 8
  %39 = load i32, i32* %5, align 4
  %40 = sext i32 %39 to i64
  %41 = getelementptr inbounds [10000 x i8], [10000 x i8]* %38, i64 %40
  %42 = getelementptr inbounds [10000 x i8], [10000 x i8]* %41, i64 0, i64 0
  %43 = call i64 @strlen(i8* %42) #5
  %44 = trunc i64 %43 to i32
  store i32 %44, i32* %8, align 4
  store i32 0, i32* %7, align 4
  br label %45

45:                                               ; preds = %97, %37
  %46 = load i32, i32* %7, align 4
  %47 = load i32, i32* %8, align 4
  %48 = icmp slt i32 %46, %47
  br i1 %48, label %49, label %100

49:                                               ; preds = %45
  %50 = load [10000 x i8]*, [10000 x i8]** %2, align 8
  %51 = load i32, i32* %5, align 4
  %52 = sext i32 %51 to i64
  %53 = getelementptr inbounds [10000 x i8], [10000 x i8]* %50, i64 %52
  %54 = getelementptr inbounds [10000 x i8], [10000 x i8]* %53, i64 0, i64 0
  %55 = load i32, i32* %7, align 4
  %56 = sext i32 %55 to i64
  %57 = getelementptr inbounds i8, i8* %54, i64 %56
  %58 = load i8, i8* %57, align 1
  store i8 %58, i8* %3, align 1
  store i32 0, i32* %9, align 4
  br label %59

59:                                               ; preds = %85, %49
  %60 = load i32, i32* %9, align 4
  %61 = load i32, i32* %8, align 4
  %62 = icmp slt i32 %60, %61
  br i1 %62, label %63, label %88

63:                                               ; preds = %59
  %64 = load i32, i32* %9, align 4
  %65 = load i32, i32* %7, align 4
  %66 = icmp eq i32 %64, %65
  br i1 %66, label %67, label %68

67:                                               ; preds = %63
  br label %85

68:                                               ; preds = %63
  %69 = load i8, i8* %3, align 1
  %70 = sext i8 %69 to i32
  %71 = load [10000 x i8]*, [10000 x i8]** %2, align 8
  %72 = load i32, i32* %5, align 4
  %73 = sext i32 %72 to i64
  %74 = getelementptr inbounds [10000 x i8], [10000 x i8]* %71, i64 %73
  %75 = getelementptr inbounds [10000 x i8], [10000 x i8]* %74, i64 0, i64 0
  %76 = load i32, i32* %9, align 4
  %77 = sext i32 %76 to i64
  %78 = getelementptr inbounds i8, i8* %75, i64 %77
  %79 = load i8, i8* %78, align 1
  %80 = sext i8 %79 to i32
  %81 = icmp eq i32 %70, %80
  br i1 %81, label %82, label %83

82:                                               ; preds = %68
  br label %88

83:                                               ; preds = %68
  br label %84

84:                                               ; preds = %83
  br label %85

85:                                               ; preds = %84, %67
  %86 = load i32, i32* %9, align 4
  %87 = add nsw i32 %86, 1
  store i32 %87, i32* %9, align 4
  br label %59

88:                                               ; preds = %82, %59
  %89 = load i32, i32* %9, align 4
  %90 = load i32, i32* %8, align 4
  %91 = icmp eq i32 %89, %90
  br i1 %91, label %92, label %96

92:                                               ; preds = %88
  %93 = load i8, i8* %3, align 1
  %94 = sext i8 %93 to i32
  %95 = call i32 (i8*, ...) @printf(i8* getelementptr inbounds ([4 x i8], [4 x i8]* @.str.1, i64 0, i64 0), i32 %94)
  store i32 1, i32* %6, align 4
  br label %100

96:                                               ; preds = %88
  br label %97

97:                                               ; preds = %96
  %98 = load i32, i32* %7, align 4
  %99 = add nsw i32 %98, 1
  store i32 %99, i32* %7, align 4
  br label %45

100:                                              ; preds = %92, %45
  %101 = load i32, i32* %6, align 4
  %102 = icmp eq i32 %101, 0
  br i1 %102, label %103, label %105

103:                                              ; preds = %100
  %104 = call i32 (i8*, ...) @printf(i8* getelementptr inbounds ([4 x i8], [4 x i8]* @.str.2, i64 0, i64 0))
  br label %105

105:                                              ; preds = %103, %100
  store i32 0, i32* %6, align 4
  br label %106

106:                                              ; preds = %105
  %107 = load i32, i32* %5, align 4
  %108 = add nsw i32 %107, 1
  store i32 %108, i32* %5, align 4
  br label %33

109:                                              ; preds = %33
  %110 = load i32, i32* %1, align 4
  ret i32 %110
}

declare dso_local i32 @__isoc99_scanf(i8*, ...) #1

declare dso_local i32 @getchar() #1

; Function Attrs: nounwind
declare dso_local noalias i8* @malloc(i64) #2

declare dso_local i32 @gets(...) #1

; Function Attrs: nounwind readonly
declare dso_local i64 @strlen(i8*) #3

declare dso_local i32 @printf(i8*, ...) #1


!llvm.module.flags = !{!0}
!llvm.ident = !{!1}

!0 = !{i32 1, !"wchar_size", i32 4}
!1 = !{!"clang version 10.0.0-4ubuntu1 "}
