; ModuleID = 'source-C-CXX/36/581.c'
source_filename = "source-C-CXX/36/581.c"
target datalayout = "e-m:e-p270:32:32-p271:32:32-p272:64:64-i64:64-f80:128-n8:16:32:64-S128"
target triple = "x86_64-pc-linux-gnu"

%struct._IO_FILE = type { i32, i8*, i8*, i8*, i8*, i8*, i8*, i8*, i8*, i8*, i8*, i8*, %struct._IO_marker*, %struct._IO_FILE*, i32, i32, i64, i16, i8, [1 x i8], i8*, i64, %struct._IO_codecvt*, %struct._IO_wide_data*, %struct._IO_FILE*, i8*, i64, i32, [20 x i8] }
%struct._IO_marker = type opaque
%struct._IO_codecvt = type opaque
%struct._IO_wide_data = type opaque

@.str = private unnamed_addr constant [3 x i8] c"%d\00", align 1
@.str.1 = private unnamed_addr constant [4 x i8] c"%c\0A\00", align 1
@stdin = external local_unnamed_addr global %struct._IO_FILE*, align 8
@str = private unnamed_addr constant [3 x i8] c"no\00", align 1

; Function Attrs: nounwind sspstrong uwtable
define dso_local i32 @main() local_unnamed_addr #0 {
  %1 = alloca i32, align 4
  %2 = bitcast i32* %1 to i8*
  call void @llvm.lifetime.start.p0i8(i64 4, i8* nonnull %2) #7
  %3 = call i32 (i8*, ...) @__isoc99_scanf(i8* getelementptr inbounds ([3 x i8], [3 x i8]* @.str, i64 0, i64 0), i32* nonnull %1)
  %4 = load %struct._IO_FILE*, %struct._IO_FILE** @stdin, align 8, !tbaa !5
  %5 = call i32 @getc(%struct._IO_FILE* %4) #7
  %6 = load i32, i32* %1, align 4, !tbaa !9
  %7 = sext i32 %6 to i64
  %8 = mul nsw i64 %7, 10000
  %9 = call noalias align 16 i8* @malloc(i64 %8) #7
  %10 = bitcast i8* %9 to [10000 x i8]*
  %11 = icmp sgt i32 %6, 0
  br i1 %11, label %14, label %62

12:                                               ; preds = %14
  %13 = icmp sgt i32 %19, 0
  br i1 %13, label %22, label %62

14:                                               ; preds = %0, %14
  %15 = phi i64 [ %18, %14 ], [ 0, %0 ]
  %16 = getelementptr inbounds [10000 x i8], [10000 x i8]* %10, i64 %15, i64 0
  %17 = call i32 (i8*, ...) bitcast (i32 (...)* @gets to i32 (i8*, ...)*)(i8* %16) #7
  %18 = add nuw nsw i64 %15, 1
  %19 = load i32, i32* %1, align 4, !tbaa !9
  %20 = sext i32 %19 to i64
  %21 = icmp slt i64 %18, %20
  br i1 %21, label %14, label %12, !llvm.loop !11

22:                                               ; preds = %12, %57
  %23 = phi i64 [ %58, %57 ], [ 0, %12 ]
  %24 = getelementptr inbounds [10000 x i8], [10000 x i8]* %10, i64 %23, i64 0
  %25 = call i64 @strlen(i8* noundef nonnull dereferenceable(1) %24) #8
  %26 = trunc i64 %25 to i32
  %27 = icmp sgt i32 %26, 0
  br i1 %27, label %28, label %55

28:                                               ; preds = %22
  %29 = shl i64 %25, 32
  %30 = ashr exact i64 %29, 32
  %31 = and i64 %25, 4294967295
  br label %32

32:                                               ; preds = %28, %36
  %33 = phi i64 [ 0, %28 ], [ %48, %36 ]
  %34 = getelementptr inbounds [10000 x i8], [10000 x i8]* %10, i64 %23, i64 %33
  %35 = load i8, i8* %34, align 1, !tbaa !13
  br label %38

36:                                               ; preds = %45
  %37 = icmp eq i64 %48, %31
  br i1 %37, label %55, label %32, !llvm.loop !14

38:                                               ; preds = %32, %49
  %39 = phi i64 [ 0, %32 ], [ %50, %49 ]
  %40 = icmp eq i64 %39, %33
  br i1 %40, label %49, label %41

41:                                               ; preds = %38
  %42 = getelementptr inbounds [10000 x i8], [10000 x i8]* %10, i64 %23, i64 %39
  %43 = load i8, i8* %42, align 1, !tbaa !13
  %44 = icmp eq i8 %35, %43
  br i1 %44, label %45, label %49

45:                                               ; preds = %41
  %46 = trunc i64 %39 to i32
  %47 = icmp eq i32 %46, %26
  %48 = add nuw nsw i64 %33, 1
  br i1 %47, label %52, label %36

49:                                               ; preds = %41, %38
  %50 = add nuw nsw i64 %39, 1
  %51 = icmp eq i64 %50, %30
  br i1 %51, label %52, label %38, !llvm.loop !15

52:                                               ; preds = %45, %49
  %53 = sext i8 %35 to i32
  %54 = call i32 (i8*, ...) @printf(i8* nonnull dereferenceable(1) getelementptr inbounds ([4 x i8], [4 x i8]* @.str.1, i64 0, i64 0), i32 %53)
  br label %57

55:                                               ; preds = %36, %22
  %56 = call i32 @puts(i8* nonnull dereferenceable(1) getelementptr inbounds ([3 x i8], [3 x i8]* @str, i64 0, i64 0))
  br label %57

57:                                               ; preds = %52, %55
  %58 = add nuw nsw i64 %23, 1
  %59 = load i32, i32* %1, align 4, !tbaa !9
  %60 = sext i32 %59 to i64
  %61 = icmp slt i64 %58, %60
  br i1 %61, label %22, label %62, !llvm.loop !16

62:                                               ; preds = %57, %0, %12
  call void @llvm.lifetime.end.p0i8(i64 4, i8* nonnull %2) #7
  ret i32 0
}

; Function Attrs: argmemonly mustprogress nofree nosync nounwind willreturn
declare void @llvm.lifetime.start.p0i8(i64 immarg, i8* nocapture) #1

; Function Attrs: nofree nounwind
declare noundef i32 @__isoc99_scanf(i8* nocapture noundef readonly, ...) local_unnamed_addr #2

; Function Attrs: inaccessiblememonly mustprogress nofree nounwind willreturn
declare noalias noundef align 16 i8* @malloc(i64 noundef) local_unnamed_addr #3

declare i32 @gets(...) local_unnamed_addr #4

; Function Attrs: argmemonly mustprogress nofree nounwind readonly willreturn
declare i64 @strlen(i8* nocapture) local_unnamed_addr #5

; Function Attrs: nofree nounwind
declare noundef i32 @printf(i8* nocapture noundef readonly, ...) local_unnamed_addr #2

; Function Attrs: argmemonly mustprogress nofree nosync nounwind willreturn
declare void @llvm.lifetime.end.p0i8(i64 immarg, i8* nocapture) #1

; Function Attrs: nofree nounwind
declare noundef i32 @getc(%struct._IO_FILE* nocapture noundef) local_unnamed_addr #2

; Function Attrs: nofree nounwind
declare noundef i32 @puts(i8* nocapture noundef readonly) local_unnamed_addr #6


!llvm.module.flags = !{!0, !1, !2, !3}
!llvm.ident = !{!4}

!0 = !{i32 1, !"wchar_size", i32 4}
!1 = !{i32 7, !"PIC Level", i32 2}
!2 = !{i32 7, !"PIE Level", i32 2}
!3 = !{i32 7, !"uwtable", i32 1}
!4 = !{!"clang version 13.0.0"}
!5 = !{!6, !6, i64 0}
!6 = !{!"any pointer", !7, i64 0}
!7 = !{!"omnipotent char", !8, i64 0}
!8 = !{!"Simple C/C++ TBAA"}
!9 = !{!10, !10, i64 0}
!10 = !{!"int", !7, i64 0}
!11 = distinct !{!11, !12}
!12 = !{!"llvm.loop.mustprogress"}
!13 = !{!7, !7, i64 0}
!14 = distinct !{!14, !12}
!15 = distinct !{!15, !12}
!16 = distinct !{!16, !12}
